target datalayout = "e-m:e-p270:32:32-p271:32:32-p272:64:64-i64:64-i128:128-f80:128-n8:16:32:64-S128"
target triple = "x86_64-pc-linux-gnu"

%struct.Kit_Node_t_ = type { %struct.Kit_Edge_t_, %struct.Kit_Edge_t_, %union.anon, i32 }
%struct.Kit_Edge_t_ = type { i32 }
%union.anon = type { ptr }
%struct.Kit_Graph_t_ = type { i32, i32, i32, i32, ptr, %struct.Kit_Edge_t_ }
%struct.Aig_Man_t_ = type { ptr, ptr, ptr, ptr, ptr, ptr, ptr, %struct.Aig_Obj_t_, i32, i32, i32, i32, i32, i32, [7 x i32], i32, ptr, i32, ptr, i32, ptr, i32, i32, i32, ptr, i32, i32, i32, i32, i32, ptr, ptr, i32, ptr, ptr, i32, ptr, ptr, i32, i32, i32, ptr, ptr, ptr, ptr, ptr, ptr, ptr, ptr, ptr, ptr, ptr, ptr, ptr, ptr, i32, ptr, ptr, ptr, ptr, i32, i64, i64, i64, ptr, ptr }
%struct.Aig_Obj_t_ = type { %union.anon.0, ptr, ptr, i64, i32, i32, %union.anon.1 }
%union.anon.0 = type { ptr }
%union.anon.1 = type { ptr }

; Function Attrs: inlinehint nounwind uwtable
define internal ptr @Kit_GraphVar(ptr noundef %0) #2 {
  %2 = alloca ptr, align 8
  store ptr %0, ptr %2, align 8, !tbaa !8
  %3 = load ptr, ptr %2, align 8, !tbaa !8
  %4 = load ptr, ptr %2, align 8, !tbaa !8
  %5 = getelementptr inbounds nuw %struct.Kit_Graph_t_, ptr %4, i32 0, i32 5
  %6 = load i32, ptr %5, align 8
  %7 = lshr i32 %6, 1
  %8 = and i32 %7, 1073741823
  %9 = call ptr @Kit_GraphNode(ptr noundef %3, i32 noundef %8)
  ret ptr %9
}

; Function Attrs: inlinehint nounwind uwtable
define internal i32 @Kit_GraphIsVar(ptr noundef %0) #2 {
  %2 = alloca ptr, align 8
  store ptr %0, ptr %2, align 8, !tbaa !8
  %3 = load ptr, ptr %2, align 8, !tbaa !8
  %4 = getelementptr inbounds nuw %struct.Kit_Graph_t_, ptr %3, i32 0, i32 5
  %5 = load i32, ptr %4, align 8
  %6 = lshr i32 %5, 1
  %7 = and i32 %6, 1073741823
  %8 = load ptr, ptr %2, align 8, !tbaa !8
  %9 = getelementptr inbounds nuw %struct.Kit_Graph_t_, ptr %8, i32 0, i32 1
  %10 = load i32, ptr %9, align 4, !tbaa !13
  %11 = icmp ult i32 %7, %10
  %12 = zext i1 %11 to i32
  ret i32 %12
}

; Function Attrs: inlinehint nounwind uwtable
define internal ptr @Aig_NotCond(ptr noundef %0, i32 noundef %1) #2 {
  %3 = alloca ptr, align 8
  %4 = alloca i32, align 4
  store ptr %0, ptr %3, align 8, !tbaa !19
  store i32 %1, ptr %4, align 4, !tbaa !17
  %5 = load ptr, ptr %3, align 8, !tbaa !19
  %6 = ptrtoint ptr %5 to i64
  %7 = load i32, ptr %4, align 4, !tbaa !17
  %8 = sext i32 %7 to i64
  %9 = xor i64 %6, %8
  %10 = inttoptr i64 %9 to ptr
  ret ptr %10
}

; Function Attrs: inlinehint nounwind uwtable
define internal i32 @Kit_GraphIsComplement(ptr noundef %0) #2 {
  %2 = alloca ptr, align 8
  store ptr %0, ptr %2, align 8, !tbaa !8
  %3 = load ptr, ptr %2, align 8, !tbaa !8
  %4 = getelementptr inbounds nuw %struct.Kit_Graph_t_, ptr %3, i32 0, i32 5
  %5 = load i32, ptr %4, align 8
  %6 = and i32 %5, 1
  ret i32 %6
}

; Function Attrs: inlinehint nounwind uwtable
define internal ptr @Aig_ManConst1(ptr noundef %0) #2 {
  %2 = alloca ptr, align 8
  store ptr %0, ptr %2, align 8, !tbaa !3
  %3 = load ptr, ptr %2, align 8, !tbaa !3
  %4 = getelementptr inbounds nuw %struct.Aig_Man_t_, ptr %3, i32 0, i32 6
  %5 = load ptr, ptr %4, align 8, !tbaa !24
  ret ptr %5
}

; Function Attrs: inlinehint nounwind uwtable
define internal i32 @Kit_GraphIsConst(ptr noundef %0) #2 {
  %2 = alloca ptr, align 8
  store ptr %0, ptr %2, align 8, !tbaa !8
  %3 = load ptr, ptr %2, align 8, !tbaa !8
  %4 = getelementptr inbounds nuw %struct.Kit_Graph_t_, ptr %3, i32 0, i32 0
  %5 = load i32, ptr %4, align 8, !tbaa !23
  ret i32 %5
}

; Function Attrs: nounwind uwtable
define ptr @Kit_GraphToAigInternal(ptr noundef %0, ptr noundef %1) #0 {
  %3 = alloca ptr, align 8
  %4 = alloca ptr, align 8
  %5 = alloca ptr, align 8
  %6 = alloca ptr, align 8
  %7 = alloca ptr, align 8
  %8 = alloca ptr, align 8
  %9 = alloca i32, align 4
  %10 = alloca i32, align 4
  store ptr %0, ptr %4, align 8, !tbaa !3
  store ptr %1, ptr %5, align 8, !tbaa !8
  call void @llvm.lifetime.start.p0(i64 8, ptr %6) #6
  store ptr null, ptr %6, align 8, !tbaa !10
  call void @llvm.lifetime.start.p0(i64 8, ptr %7) #6
  call void @llvm.lifetime.start.p0(i64 8, ptr %8) #6
  call void @llvm.lifetime.start.p0(i64 4, ptr %9) #6
  %11 = load ptr, ptr %5, align 8, !tbaa !8
  %12 = call i32 @Kit_GraphIsConst(ptr noundef %11)
  %13 = icmp ne i32 %12, 0
  br i1 %13, label %14, label %20

14:                                               ; preds = %2
  %15 = load ptr, ptr %4, align 8, !tbaa !3
  %16 = call ptr @Aig_ManConst1(ptr noundef %15)
  %17 = load ptr, ptr %5, align 8, !tbaa !8
  %18 = call i32 @Kit_GraphIsComplement(ptr noundef %17)
  %19 = call ptr @Aig_NotCond(ptr noundef %16, i32 noundef %18)
  store ptr %19, ptr %3, align 8
  store i32 1, ptr %10, align 4
  br label %93

20:                                               ; preds = %2
  %21 = load ptr, ptr %5, align 8, !tbaa !8
  %22 = call i32 @Kit_GraphIsVar(ptr noundef %21)
  %23 = icmp ne i32 %22, 0
  br i1 %23, label %24, label %32

24:                                               ; preds = %20
  %25 = load ptr, ptr %5, align 8, !tbaa !8
  %26 = call ptr @Kit_GraphVar(ptr noundef %25)
  %27 = getelementptr inbounds nuw %struct.Kit_Node_t_, ptr %26, i32 0, i32 2
  %28 = load ptr, ptr %27, align 8, !tbaa !12
  %29 = load ptr, ptr %5, align 8, !tbaa !8
  %30 = call i32 @Kit_GraphIsComplement(ptr noundef %29)
  %31 = call ptr @Aig_NotCond(ptr noundef %28, i32 noundef %30)
  store ptr %31, ptr %3, align 8
  store i32 1, ptr %10, align 4
  br label %93

32:                                               ; preds = %20
  %33 = load ptr, ptr %5, align 8, !tbaa !8
  %34 = getelementptr inbounds nuw %struct.Kit_Graph_t_, ptr %33, i32 0, i32 1
  %35 = load i32, ptr %34, align 4, !tbaa !13
  store i32 %35, ptr %9, align 4, !tbaa !17
  br label %36

36:                                               ; preds = %83, %32
  %37 = load i32, ptr %9, align 4, !tbaa !17
  %38 = load ptr, ptr %5, align 8, !tbaa !8
  %39 = getelementptr inbounds nuw %struct.Kit_Graph_t_, ptr %38, i32 0, i32 2
  %40 = load i32, ptr %39, align 8, !tbaa !18
  %41 = icmp slt i32 %37, %40
  br i1 %41, label %42, label %46

42:                                               ; preds = %36
  %43 = load ptr, ptr %5, align 8, !tbaa !8
  %44 = load i32, ptr %9, align 4, !tbaa !17
  %45 = call ptr @Kit_GraphNode(ptr noundef %43, i32 noundef %44)
  store ptr %45, ptr %6, align 8, !tbaa !10
  br label %46

46:                                               ; preds = %42, %36
  %47 = phi i1 [ false, %36 ], [ true, %42 ]
  br i1 %47, label %48, label %86

48:                                               ; preds = %46
  %49 = load ptr, ptr %5, align 8, !tbaa !8
  %50 = load ptr, ptr %6, align 8, !tbaa !10
  %51 = getelementptr inbounds nuw %struct.Kit_Node_t_, ptr %50, i32 0, i32 0
  %52 = load i32, ptr %51, align 8
  %53 = lshr i32 %52, 1
  %54 = and i32 %53, 1073741823
  %55 = call ptr @Kit_GraphNode(ptr noundef %49, i32 noundef %54)
  %56 = getelementptr inbounds nuw %struct.Kit_Node_t_, ptr %55, i32 0, i32 2
  %57 = load ptr, ptr %56, align 8, !tbaa !12
  %58 = load ptr, ptr %6, align 8, !tbaa !10
  %59 = getelementptr inbounds nuw %struct.Kit_Node_t_, ptr %58, i32 0, i32 0
  %60 = load i32, ptr %59, align 8
  %61 = and i32 %60, 1
  %62 = call ptr @Aig_NotCond(ptr noundef %57, i32 noundef %61)
  store ptr %62, ptr %7, align 8, !tbaa !19
  %63 = load ptr, ptr %5, align 8, !tbaa !8
  %64 = load ptr, ptr %6, align 8, !tbaa !10
  %65 = getelementptr inbounds nuw %struct.Kit_Node_t_, ptr %64, i32 0, i32 1
  %66 = load i32, ptr %65, align 4
  %67 = lshr i32 %66, 1
  %68 = and i32 %67, 1073741823
  %69 = call ptr @Kit_GraphNode(ptr noundef %63, i32 noundef %68)
  %70 = getelementptr inbounds nuw %struct.Kit_Node_t_, ptr %69, i32 0, i32 2
  %71 = load ptr, ptr %70, align 8, !tbaa !12
  %72 = load ptr, ptr %6, align 8, !tbaa !10
  %73 = getelementptr inbounds nuw %struct.Kit_Node_t_, ptr %72, i32 0, i32 1
  %74 = load i32, ptr %73, align 4
  %75 = and i32 %74, 1
  %76 = call ptr @Aig_NotCond(ptr noundef %71, i32 noundef %75)
  store ptr %76, ptr %8, align 8, !tbaa !19
  %77 = load ptr, ptr %4, align 8, !tbaa !3
  %78 = load ptr, ptr %7, align 8, !tbaa !19
  %79 = load ptr, ptr %8, align 8, !tbaa !19
  %80 = call ptr @Aig_And(ptr noundef %77, ptr noundef %78, ptr noundef %79)
  %81 = load ptr, ptr %6, align 8, !tbaa !10
  %82 = getelementptr inbounds nuw %struct.Kit_Node_t_, ptr %81, i32 0, i32 2
  store ptr %80, ptr %82, align 8, !tbaa !12
  br label %83

83:                                               ; preds = %48
  %84 = load i32, ptr %9, align 4, !tbaa !17
  %85 = add nsw i32 %84, 1
  store i32 %85, ptr %9, align 4, !tbaa !17
  br label %36, !llvm.loop !21

86:                                               ; preds = %46
  %87 = load ptr, ptr %6, align 8, !tbaa !10
  %88 = getelementptr inbounds nuw %struct.Kit_Node_t_, ptr %87, i32 0, i32 2
  %89 = load ptr, ptr %88, align 8, !tbaa !12
  %90 = load ptr, ptr %5, align 8, !tbaa !8
  %91 = call i32 @Kit_GraphIsComplement(ptr noundef %90)
  %92 = call ptr @Aig_NotCond(ptr noundef %89, i32 noundef %91)
  store ptr %92, ptr %3, align 8
  store i32 1, ptr %10, align 4
  br label %93

93:                                               ; preds = %86, %24, %14
  call void @llvm.lifetime.end.p0(i64 4, ptr %9) #6
  call void @llvm.lifetime.end.p0(i64 8, ptr %8) #6
  call void @llvm.lifetime.end.p0(i64 8, ptr %7) #6
  call void @llvm.lifetime.end.p0(i64 8, ptr %6) #6
  %94 = load ptr, ptr %3, align 8
  ret ptr %94
}

; Function Attrs: inlinehint nounwind uwtable
define internal ptr @Kit_GraphNode(ptr noundef %0, i32 noundef %1) #2 {
  %3 = alloca ptr, align 8
  %4 = alloca i32, align 4
  store ptr %0, ptr %3, align 8, !tbaa !8
  store i32 %1, ptr %4, align 4, !tbaa !17
  %5 = load ptr, ptr %3, align 8, !tbaa !8
  %6 = getelementptr inbounds nuw %struct.Kit_Graph_t_, ptr %5, i32 0, i32 4
  %7 = load ptr, ptr %6, align 8, !tbaa !36
  %8 = load i32, ptr %4, align 4, !tbaa !17
  %9 = sext i32 %8 to i64
  %10 = getelementptr inbounds %struct.Kit_Node_t_, ptr %7, i64 %9
  ret ptr %10
}

; Function Attrs: nounwind uwtable
define ptr @Kit_GraphToAig(ptr noundef %0, ptr noundef %1, ptr noundef %2) #0 {
  %4 = alloca ptr, align 8
  %5 = alloca ptr, align 8
  %6 = alloca ptr, align 8
  %7 = alloca ptr, align 8
  %8 = alloca i32, align 4
  store ptr %0, ptr %4, align 8, !tbaa !3
  store ptr %1, ptr %5, align 8, !tbaa !37
  store ptr %2, ptr %6, align 8, !tbaa !8
  call void @llvm.lifetime.start.p0(i64 8, ptr %7) #6
  store ptr null, ptr %7, align 8, !tbaa !10
  call void @llvm.lifetime.start.p0(i64 4, ptr %8) #6
  store i32 0, ptr %8, align 4, !tbaa !17
  br label %9

9:                                                ; preds = %29, %3
  %10 = load i32, ptr %8, align 4, !tbaa !17
  %11 = load ptr, ptr %6, align 8, !tbaa !8
  %12 = getelementptr inbounds nuw %struct.Kit_Graph_t_, ptr %11, i32 0, i32 1
  %13 = load i32, ptr %12, align 4, !tbaa !13
  %14 = icmp slt i32 %10, %13
  br i1 %14, label %15, label %19

15:                                               ; preds = %9
  %16 = load ptr, ptr %6, align 8, !tbaa !8
  %17 = load i32, ptr %8, align 4, !tbaa !17
  %18 = call ptr @Kit_GraphNode(ptr noundef %16, i32 noundef %17)
  store ptr %18, ptr %7, align 8, !tbaa !10
  br label %19

19:                                               ; preds = %15, %9
  %20 = phi i1 [ false, %9 ], [ true, %15 ]
  br i1 %20, label %21, label %32

21:                                               ; preds = %19
  %22 = load ptr, ptr %5, align 8, !tbaa !37
  %23 = load i32, ptr %8, align 4, !tbaa !17
  %24 = sext i32 %23 to i64
  %25 = getelementptr inbounds ptr, ptr %22, i64 %24
  %26 = load ptr, ptr %25, align 8, !tbaa !19
  %27 = load ptr, ptr %7, align 8, !tbaa !10
  %28 = getelementptr inbounds nuw %struct.Kit_Node_t_, ptr %27, i32 0, i32 2
  store ptr %26, ptr %28, align 8, !tbaa !12
  br label %29

29:                                               ; preds = %21
  %30 = load i32, ptr %8, align 4, !tbaa !17
  %31 = add nsw i32 %30, 1
  store i32 %31, ptr %8, align 4, !tbaa !17
  br label %9, !llvm.loop !38

32:                                               ; preds = %19
  %33 = load ptr, ptr %4, align 8, !tbaa !3
  %34 = load ptr, ptr %6, align 8, !tbaa !8
  %35 = call ptr @Kit_GraphToAigInternal(ptr noundef %33, ptr noundef %34)
  call void @llvm.lifetime.end.p0(i64 4, ptr %8) #6
  call void @llvm.lifetime.end.p0(i64 8, ptr %7) #6
  ret ptr %35
}