; Function Attrs: nounwind uwtable
define ptr @Kit_GraphToAig(ptr noundef %0, ptr noundef readonly captures(none) %1, ptr noundef readonly captures(none) %2) local_unnamed_addr #0 {
  %4 = getelementptr inbounds nuw i8, ptr %2, i64 4
  %5 = load i32, ptr %4, align 4, !tbaa !25
  %6 = icmp sgt i32 %5, 0
  br i1 %6, label %.lr.ph, label %.critedge

.lr.ph:                                           ; preds = %3
  %7 = getelementptr i8, ptr %2, i64 16
  br label %8

8:                                                ; preds = %.lr.ph, %8
  %indvars.iv = phi i64 [ 0, %.lr.ph ], [ %indvars.iv.next, %8 ]
  %.val = load ptr, ptr %7, align 8, !tbaa !27
  %9 = getelementptr inbounds nuw ptr, ptr %1, i64 %indvars.iv
  %10 = load ptr, ptr %9, align 8, !tbaa !31
  %11 = getelementptr inbounds nuw %struct.Kit_Node_t_, ptr %.val, i64 %indvars.iv, i32 2
  store ptr %10, ptr %11, align 8, !tbaa !28
  %indvars.iv.next = add nuw nsw i64 %indvars.iv, 1
  %12 = load i32, ptr %4, align 4, !tbaa !25
  %13 = sext i32 %12 to i64
  %14 = icmp slt i64 %indvars.iv.next, %13
  br i1 %14, label %8, label %.critedge, !llvm.loop !32

.critedge:                                        ; preds = %8, %3
  %.lcssa9 = phi i32 [ %5, %3 ], [ %12, %8 ]
  %.val.i = load i32, ptr %2, align 8, !tbaa !3
  %.not.i = icmp eq i32 %.val.i, 0
  %15 = getelementptr i8, ptr %2, i64 24
  %.val32.i = load i32, ptr %15, align 8
  br i1 %.not.i, label %22, label %16

16:                                               ; preds = %.critedge
  %17 = getelementptr i8, ptr %0, i64 48
  %.val27.i = load ptr, ptr %17, align 8, !tbaa !11
  %18 = and i32 %.val32.i, 1
  %19 = ptrtoint ptr %.val27.i to i64
  %20 = zext nneg i32 %18 to i64
  %21 = xor i64 %19, %20
  br label %Kit_GraphToAigInternal.exit

22:                                               ; preds = %.critedge
  %23 = lshr i32 %.val32.i, 1
  %24 = and i32 %23, 1073741823
  %.not38.i = icmp ult i32 %24, %.lcssa9
  br i1 %.not38.i, label %30, label %.preheader.i

.preheader.i:                                     ; preds = %22
  %25 = getelementptr inbounds nuw i8, ptr %2, i64 8
  %26 = load i32, ptr %25, align 8, !tbaa !26
  %27 = icmp slt i32 %.lcssa9, %26
  tail call void @llvm.assume(i1 %27)
  %28 = getelementptr i8, ptr %2, i64 16
  %29 = zext nneg i32 %.lcssa9 to i64
  br label %39

30:                                               ; preds = %22
  %31 = getelementptr i8, ptr %2, i64 16
  %.val36.i = load ptr, ptr %31, align 8, !tbaa !27
  %32 = zext nneg i32 %24 to i64
  %33 = getelementptr inbounds nuw %struct.Kit_Node_t_, ptr %.val36.i, i64 %32, i32 2
  %34 = load ptr, ptr %33, align 8, !tbaa !28
  %35 = and i32 %.val32.i, 1
  %36 = ptrtoint ptr %34 to i64
  %37 = zext nneg i32 %35 to i64
  %38 = xor i64 %36, %37
  br label %Kit_GraphToAigInternal.exit

39:                                               ; preds = %39, %.preheader.i
  %indvars.iv.i = phi i64 [ %29, %.preheader.i ], [ %indvars.iv.next.i, %39 ]
  %.val33.i = load ptr, ptr %28, align 8, !tbaa !27
  %40 = getelementptr inbounds nuw %struct.Kit_Node_t_, ptr %.val33.i, i64 %indvars.iv.i
  %41 = load i32, ptr %40, align 8
  %42 = lshr i32 %41, 1
  %43 = and i32 %42, 1073741823
  %44 = zext nneg i32 %43 to i64
  %45 = getelementptr inbounds nuw %struct.Kit_Node_t_, ptr %.val33.i, i64 %44, i32 2
  %46 = load ptr, ptr %45, align 8, !tbaa !28
  %47 = and i32 %41, 1
  %48 = ptrtoint ptr %46 to i64
  %49 = zext nneg i32 %47 to i64
  %50 = xor i64 %49, %48
  %51 = inttoptr i64 %50 to ptr
  %52 = getelementptr inbounds nuw i8, ptr %40, i64 4
  %53 = load i32, ptr %52, align 4
  %54 = lshr i32 %53, 1
  %55 = and i32 %54, 1073741823
  %56 = zext nneg i32 %55 to i64
  %57 = getelementptr inbounds nuw %struct.Kit_Node_t_, ptr %.val33.i, i64 %56, i32 2
  %58 = load ptr, ptr %57, align 8, !tbaa !28
  %59 = and i32 %53, 1
  %60 = ptrtoint ptr %58 to i64
  %61 = zext nneg i32 %59 to i64
  %62 = xor i64 %61, %60
  %63 = inttoptr i64 %62 to ptr
  %64 = tail call ptr @Aig_And(ptr noundef %0, ptr noundef %51, ptr noundef %63) #5
  %65 = getelementptr inbounds nuw i8, ptr %40, i64 8
  store ptr %64, ptr %65, align 8, !tbaa !28
  %indvars.iv.next.i = add nuw nsw i64 %indvars.iv.i, 1
  %66 = load i32, ptr %25, align 8, !tbaa !26
  %67 = sext i32 %66 to i64
  %68 = icmp slt i64 %indvars.iv.next.i, %67
  br i1 %68, label %39, label %.critedge.i, !llvm.loop !29

.critedge.i:                                      ; preds = %39
  %.val30.i = load i32, ptr %15, align 8
  %69 = and i32 %.val30.i, 1
  %70 = ptrtoint ptr %64 to i64
  %71 = zext nneg i32 %69 to i64
  %72 = xor i64 %71, %70
  br label %Kit_GraphToAigInternal.exit

Kit_GraphToAigInternal.exit:                      ; preds = %16, %30, %.critedge.i
  %.024.in.i = phi i64 [ %21, %16 ], [ %38, %30 ], [ %72, %.critedge.i ]
  %.024.i = inttoptr i64 %.024.in.i to ptr
  ret ptr %.024.i
}